(dp1
S'name'
p2
Vgenerator: Noise
p3
sS'parameters'
p4
(iglobals
ParameterList
p5
(dp6
S'_params'
p7
(lp8
(iglobals
Parameter
p9
(dp10
g2
S'fs'
p11
sS'tuple'
p12
NsS'fileFilter'
p13
S''
sS'value'
p14
F1024
sS'callback'
p15
NsS'readOnly'
p16
I00
sS'type'
p17
c__builtin__
float
p18
sba(iglobals
Parameter
p19
(dp20
g2
S'samplescount'
p21
sg12
Nsg13
S''
sg14
I1024
sg15
Nsg16
I00
sg17
c__builtin__
int
p22
sba(iglobals
Parameter
p23
(dp24
g2
S'xAxisLabel'
p25
sg12
Nsg13
S''
sg14
S'time'
p26
sg15
Nsg16
I00
sg17
c__builtin__
str
p27
sba(iglobals
Parameter
p28
(dp29
g2
S'yAxisLabel'
p30
sg12
Nsg13
S''
sg14
S'magnitude'
p31
sg15
Nsg16
I00
sg17
g27
sba(iglobals
Parameter
p32
(dp33
g2
S'xUnit'
p34
sg12
Nsg13
S''
sg14
S'samples'
p35
sg15
Nsg16
I00
sg17
g27
sba(iglobals
Parameter
p36
(dp37
g2
S'yUnit'
p38
sg12
Nsg13
S''
sg14
S''
sg15
Nsg16
I00
sg17
g27
sba(iglobals
Parameter
p39
(dp40
g2
S'gain'
p41
sg12
Nsg13
S''
sg14
F1
sg15
Nsg16
I00
sg17
g18
sbasbsS'subType'
p42
S'noise'
p43
sS'yData'
p44
(lp45
F-0.45017068521851489
aF-0.32127862827147291
aF-0.35337302556708694
aF0.2829404304023202
aF-0.045100038893035155
aF0.36910591839281814
aF-0.16512518665926823
aF0.23843034776322147
aF0.1821132285308984
aF0.025863823330628644
aF-0.0099813157539390129
aF-0.49230852521556356
aF0.20732399918275735
aF0.34369999182263167
aF-0.011172592286902705
aF-0.1405695168519957
aF-0.35374174676401671
aF0.089700354021894468
aF-0.27008026216197867
aF-0.12633682709046967
aF0.0054537355820692968
aF0.3815810353247765
aF-0.0010653462727694407
aF-0.13308192254625273
aF0.36949608000362844
aF-0.42338274292231026
aF0.014046550117657763
aF-0.26163964032844378
aF-0.27841391540250615
aF0.10937867503845833
aF0.21781447778136442
aF0.011191422772902637
aF-0.21485934472437618
aF-0.18453143880851131
aF0.29481227397380083
aF-0.33712421930035452
aF0.36723194458004627
aF0.0098021753044877924
aF0.40854048783291685
aF-0.15232151259043603
aF0.13663732237150406
aF0.07632020167399356
aF-0.49958839958620493
aF0.14597279825365328
aF-0.34218575198940149
aF0.19426096603790743
aF-0.10237868557343222
aF0.090863641318657873
aF-0.22790888432582446
aF0.15750447899880815
aF-0.48344731050066647
aF0.44067391352964747
aF0.34178392894534393
aF0.15989534042842779
aF0.103204735290088
aF-0.27545322868363831
aF-0.33638259224700184
aF-0.2384104117188478
aF0.42554532541571999
aF0.3635392366187421
aF-0.4046649288873333
aF-0.013449441255280692
aF0.29593701989008903
aF-0.2744531870729201
aF0.22161234838606281
aF0.30086123007209142
aF0.12908864061138714
aF-0.027527631722690793
aF0.14957057440706867
aF0.45668403070143404
aF0.37814410308934854
aF0.35789893443519938
aF0.23713242542954716
aF0.34854025052120186
aF0.059959429507403517
aF0.4880872109278398
aF-0.14008140275950365
aF0.49531697337230984
aF0.10552446680784544
aF0.36040442772096415
aF-0.019099081031979548
aF-0.14703286838354368
aF-0.36639141497730732
aF-0.18047399758867377
aF-0.237582646025703
aF0.13310321996081942
aF0.10498902788635112
aF-0.25289027261836061
aF-0.27351033961313032
aF-0.43655256813860022
aF-0.47551148004553867
aF-0.24290336140910362
aF0.28254535085576971
aF-0.4621009755151434
aF0.20554783575283286
aF0.3022737948526345
aF-0.0078385328826777734
aF0.33032763251748398
aF-0.27002447554132603
aF0.42804595564418524
aF-0.261453709192082
aF0.2757468585054802
aF0.034980083981397625
aF-0.3895325114656788
aF-0.095023905721195012
aF-0.042412969683682245
aF0.071263302224401692
aF0.045917533030987223
aF0.17414588398973307
aF0.2617480948193478
aF0.34486555906131622
aF0.15591998329457712
aF0.23185574788825125
aF0.32915869376364471
aF0.28160892043280616
aF-0.11653263167564898
aF0.27774790449329445
aF-0.021153060041193661
aF0.49049189235075397
aF-0.21845491884875945
aF0.24410114887200651
aF-0.34692095311063909
aF0.11623622103444176
aF0.12674927991815521
aF0.3806647064525247
aF0.49577173072175518
aF-0.10757428288337678
aF0.09225385321465851
aF-0.058629965117618088
aF-0.14539691562479606
aF0.38520819870032985
aF-0.21740764609515284
aF-0.19936624162343242
aF0.26059416999621654
aF-0.041484383287712645
aF-0.47443379251008166
aF-0.093043810364043966
aF-0.037794653821615287
aF0.31201547733100599
aF0.20284484636035727
aF0.13122788900787252
aF-0.45107266360762532
aF0.45494506444466376
aF0.33602321148736614
aF0.078001590817872835
aF-0.47025045199048721
aF-0.026711922940344413
aF-0.14313475014738397
aF-0.2340627472009893
aF-0.43091909009379137
aF-0.28811012630234223
aF-0.089794496140208402
aF-0.093761787829688803
aF-0.37978324482481329
aF0.14223048944565819
aF-0.24269542311692549
aF0.083639108408254947
aF0.26679193128793732
aF0.25336292635641977
aF-0.27107378794158721
aF0.42734596305037886
aF0.28336178252903244
aF-0.33848267305064073
aF0.017162411040189562
aF-0.15400879421923364
aF0.40456158131504061
aF-0.34463320849568613
aF0.073402564441584661
aF0.45958742750603576
aF0.30214070622126898
aF-0.30314003038785531
aF0.30049622142977972
aF0.19713474153876387
aF-0.47760483503357298
aF0.34184328987878321
aF-0.11696950501025261
aF0.43184947092982751
aF0.25427802038994873
aF0.026470421046123627
aF-0.31248691851632038
aF0.40930930750272732
aF-0.37445066491744095
aF0.29098580732932255
aF0.41838418992169357
aF-0.048534024298268807
aF0.21302258361161941
aF0.17448576668411686
aF-0.38224511414649387
aF-0.22665261627642119
aF0.060637951433325399
aF0.062753635289575782
aF-0.14924644982183743
aF0.12811446798197845
aF-0.31122025017819566
aF-0.22072330754053959
aF-0.025914907905575379
aF-0.025395527220094416
aF0.19888308626715923
aF0.31081654357935862
aF0.083426780771859166
aF0.06904835164494072
aF0.35282254446177252
aF-0.14000029148046156
aF0.065528040348609373
aF-0.34782553711304187
aF0.47731446313442949
aF0.30296521307495405
aF0.29516274251238084
aF-0.33960606686409134
aF0.38361707996741512
aF0.396477780125985
aF0.4687449061530885
aF0.20033283062392282
aF-0.027420253939834827
aF0.26675086732923337
aF0.14468812128666864
aF-0.12463381425253983
aF0.073900645453262026
aF-0.48855468942930058
aF-0.39252458178639427
aF0.30908680001894051
aF0.074397208644127244
aF0.4102014999928304
aF0.27091613130375092
aF0.36198347055987135
aF-0.20682775734945424
aF0.34714113844857408
aF0.19323804911389719
aF-0.39154203427279166
aF-0.19254759010933342
aF-0.083996367236053748
aF0.20613930711576856
aF0.11219585850054026
aF-0.38402000410427195
aF-0.406365528494399
aF0.30937296243667634
aF0.45793972867869193
aF0.36251171218596856
aF0.35495285756623829
aF0.38125426735163048
aF-0.015074671882611801
aF-0.49065651703345126
aF0.10765186676876115
aF-0.28779385480064656
aF-0.38604030564990133
aF0.064965785217184546
aF0.2555066892675546
aF-0.097257352739558489
aF0.14942381585097264
aF-0.47813726303241477
aF0.30294803092433731
aF-0.19828360062899508
aF0.49556265591875359
aF0.41471209959624578
aF0.46622446007930474
aF-0.10897404175868064
aF-0.28556222715276769
aF0.37258190563511406
aF0.25958980249680252
aF0.24073954668543374
aF0.034484160503068462
aF0.21619196971981913
aF0.31948754763576626
aF0.021775838829331318
aF-0.035667301450847733
aF-0.19111837784662478
aF0.010381466323961974
aF0.37157896972322968
aF0.15210040019674176
aF-0.37784555349538163
aF-0.0235937122334271
aF0.42236855509478932
aF-0.037157909568919734
aF0.30735351820131329
aF-0.029850550516069108
aF0.25504886696933415
aF0.11008995123085674
aF0.33185818230697406
aF-0.44990462915542206
aF0.42637739286450171
aF-0.31979481022864342
aF-0.20862347868127951
aF-0.23069939407256768
aF-0.10401646624507799
aF0.076183789895821086
aF-0.35506242896761719
aF0.18579461721986368
aF0.33718614708817785
aF0.095987097154946799
aF-0.47812337719930142
aF0.0096882768201884684
aF-0.4312012574966575
aF0.35928126969361218
aF-0.38330058981092041
aF-0.37102567624658522
aF-0.26120823349817468
aF-0.18171084048357455
aF-0.29376247435729363
aF-0.12651368642731009
aF0.41477620625019718
aF-0.16006325530959786
aF-0.018593884591495025
aF0.18162154703487643
aF0.19861124184796564
aF0.38196990735866387
aF0.26490547818701982
aF-0.41237259856534769
aF-0.12546041550918074
aF-0.26704718575077091
aF-0.4779546162762639
aF-0.19811493430155513
aF-0.29663891811341292
aF-0.32475418906663889
aF0.37376195796914069
aF-0.45000682130238756
aF-0.092024945568672467
aF-0.3815596053724789
aF0.28511394875853324
aF-0.37482504367396074
aF-0.35761239659916677
aF-0.075931297040029433
aF0.24460241516791437
aF-0.096446129021139693
aF0.29419528242057635
aF0.40913721974434147
aF-0.22504430320553837
aF-0.12072392441866697
aF0.17688109400283536
aF0.15558633747340112
aF0.1376395309078654
aF-0.18257687684875201
aF0.17082870393819549
aF-0.20363243434878497
aF-0.060735342671686898
aF0.47864006889214028
aF-0.26060786585648121
aF0.208099878093016
aF0.33162575749821055
aF0.41528881590919164
aF-0.037262995804976162
aF0.40007989984667858
aF0.34520506470447876
aF-0.3300200402201493
aF-0.32043153746198438
aF-0.33794251237670203
aF0.20834898972736327
aF-0.21407324121729476
aF0.42427091732883804
aF0.047148890118421272
aF-0.10611904996911492
aF0.27457864943001731
aF0.12362519232899039
aF-0.0079010508726370388
aF-0.12140004033051688
aF0.19170150242442563
aF-0.22383352680504653
aF0.39319956807056189
aF0.18927243178215458
aF0.44670438366775767
aF-0.20824490636630655
aF0.14714494492695851
aF0.47781133412210242
aF0.26566847557086148
aF-0.37033697343145833
aF-0.36967126684262053
aF0.45697236027602506
aF0.2765811029767038
aF-0.20574830308893977
aF0.39108999923062604
aF0.32646638137552642
aF0.40470770206635276
aF-0.31508629845712988
aF-0.21438223603065998
aF0.083843646466587818
aF-0.21675562262013703
aF0.029240103617916624
aF0.31650998598883984
aF-0.16130348298696795
aF0.021166385070484628
aF0.011573067578800167
aF-0.27801708510867906
aF-0.41642270122948843
aF0.1634880750376223
aF0.28390840075672452
aF-0.030301244992322895
aF0.49727677450622487
aF-0.35651826146322674
aF-0.35281965307036112
aF-0.3169258169251199
aF0.39567221085744453
aF0.17357683573031624
aF0.09489560569236366
aF0.46533446182905791
aF0.14835965519389627
aF0.17299452960520822
aF0.49571974032775923
aF-0.12156923851580403
aF0.022378861171973963
aF0.1923343891463456
aF0.085075016143719595
aF0.14419202651364338
aF0.16386410971446852
aF0.23053058245572711
aF-0.46463947504543157
aF-0.43622371218238432
aF-0.14890966781935033
aF0.15236028307305771
aF-0.48126912619188256
aF0.26997325317314125
aF0.32089893800876024
aF-0.2806599935254559
aF0.24168487382633008
aF0.23699821756972295
aF0.21093081964409022
aF-0.37849080465569795
aF-0.007266605528783221
aF-0.099607939275488389
aF0.10490535303213877
aF0.0947480063726438
aF-0.40304898941997291
aF-0.38238221979020148
aF0.18762001794344374
aF0.027835862694950086
aF-0.19154257725092017
aF0.098478363758883525
aF0.45768141345199764
aF-0.067065559283439269
aF-0.029921072919116387
aF0.1005132765869573
aF0.36016794603938218
aF-0.020023196446877001
aF-0.29984237445059381
aF0.48427089125674116
aF-0.23721372074074076
aF-0.35117163890388514
aF-0.010357642272103229
aF0.21782370340792945
aF0.068616051518023635
aF0.20110180800407274
aF-0.24317432167868991
aF0.29154211822348963
aF0.26934986797717853
aF0.036306169546235334
aF-0.13398293120989835
aF0.42584531142081572
aF-0.086764246769100328
aF0.28628811054860015
aF0.46405182673192391
aF-0.13882745628062776
aF0.38941360373789413
aF-0.072703300146617189
aF-0.28969251807185326
aF-0.36204963642046062
aF0.3029196596804471
aF0.31866872529005719
aF0.18995161009688033
aF0.23209623394443646
aF-0.33969543157594684
aF-0.012976184460496087
aF-0.21143694039893401
aF0.026189155324826685
aF0.13013639493832363
aF0.29584812086486734
aF0.31628608208985187
aF-0.23037245883974766
aF-0.019394881428596911
aF0.10724581706737191
aF-0.30316482146908474
aF-0.40173775159384806
aF0.19560206813554171
aF-0.31116241557007718
aF0.39371235858521547
aF-0.21933847867935619
aF0.048612659892751875
aF-0.039781426994947244
aF0.29660375104867265
aF0.19134817578774643
aF0.22190143451799016
aF-0.26474196358624602
aF-0.088465701234781258
aF-0.096860786192865089
aF0.32309295696200413
aF-0.12962690089971418
aF0.4518422714175655
aF0.095975442732565308
aF0.3678776528984089
aF-0.2585112764857429
aF-0.085549945283519335
aF0.15513166524646316
aF0.020336716676350286
aF-0.42537209368185747
aF-0.38788793514207165
aF-0.078153255237256469
aF0.27320356183649941
aF-0.29741391167335018
aF0.38859095713928793
aF0.4872670722416399
aF0.47716326385656294
aF-0.3587643883538213
aF0.49585524769084699
aF0.38579136922408108
aF0.063928239248959406
aF0.35173154763736314
aF-0.18444070145421998
aF0.10066247106079085
aF0.38385634606159125
aF-0.034476236910723324
aF-0.20324704048423026
aF-0.079473548657516879
aF-0.28793136818429588
aF-0.027603872066363611
aF-0.18897160022858484
aF0.0061332232359978534
aF0.44320123512921561
aF0.23541387453142437
aF-0.32767264800982243
aF0.42251952013233185
aF0.097632885102641342
aF0.10206935651176319
aF0.23596985489959099
aF-0.17921016962682634
aF-0.23840997422574262
aF0.37918436840607395
aF0.090516306347540709
aF0.048737987935326355
aF-0.21898087734548055
aF0.35167442885340916
aF0.33409623434336821
aF0.15086424101695217
aF0.12349566134898771
aF-0.074141666340755363
aF0.1653881472790546
aF0.24953068445986615
aF-0.23263223714537229
aF0.12747027332204564
aF-0.19831518820406369
aF-0.15043503697214378
aF0.36453351862283823
aF-0.42222563781074574
aF0.20718882504615377
aF0.056781680814587787
aF-0.016568873032919318
aF0.049126259735544076
aF0.03805103852687941
aF-0.36893426877817193
aF0.45312455480179115
aF-0.1032645140667563
aF0.13679764016828211
aF0.15797905995852524
aF-0.066738825168445648
aF0.20038645623442719
aF0.38201407317160685
aF0.26384572422241059
aF0.054754892528436128
aF-0.35619883069024338
aF-0.46424870558850539
aF0.40216540899120412
aF-0.25169843735188635
aF0.47815954572393826
aF0.480250971093788
aF-0.13868469404275663
aF0.17643532198049072
aF-0.22353973159838303
aF0.24709777340604822
aF-0.4751432525555217
aF0.16705940898453675
aF-0.30600190774194636
aF-0.27903687710994607
aF0.29643066484282776
aF-0.023006599151411566
aF-0.47668956402413964
aF-0.33567493770720225
aF0.21664714229992676
aF0.3193085114330706
aF0.34377653899468663
aF-0.10223785854203771
aF-0.48822591687731409
aF0.35378199789505727
aF0.18084211180934906
aF0.27404182999274562
aF-0.3443878486958537
aF-0.37691916184475061
aF-0.10400054835570338
aF0.45266221247084903
aF-0.14541483120280196
aF-0.26006941485851398
aF0.030267198769149961
aF-0.32002781613018039
aF0.32798064605423261
aF-0.28523800613072137
aF-0.29055142696800629
aF0.16690163254634416
aF0.20248239273488555
aF0.045577597904081668
aF-0.40953245026985907
aF0.44094985213257687
aF0.13585668519156158
aF0.41538798453841441
aF-0.17208434768182057
aF0.46997557064409212
aF0.25595693043933421
aF0.27721380244756477
aF-0.35067923177643623
aF0.42731834189858775
aF-0.077554501860322977
aF0.29036867854277182
aF-0.3268015436070747
aF-0.34507985901170923
aF-0.020495931541581469
aF0.15721497008409246
aF-0.067815957358768442
aF-0.014876373423100442
aF0.41382002616876834
aF0.35787310946913575
aF0.3917561044194412
aF-0.35264068207649835
aF-0.24533305820773443
aF0.45929804996179713
aF-0.20202617897784814
aF-0.21020867539320187
aF-0.021078095099472005
aF0.46759223190565036
aF0.33873697218143006
aF0.29478232847782793
aF-0.15589011168017497
aF-0.099941282935749109
aF-0.42412960250026432
aF0.30634829341599046
aF0.016766992648957979
aF-0.015415735938972164
aF-0.21595212042238932
aF-0.28270219936375729
aF0.016483090917889243
aF0.40555472538297521
aF-0.35106087268344865
aF0.10042902527371012
aF-0.48416547039501923
aF0.15914851866840896
aF-0.011413253274283663
aF-0.29480659105890517
aF0.11245959442445974
aF0.21419624920254043
aF-0.0253127533653974
aF0.41491560566676045
aF-0.34490380765689754
aF-0.071943820199707353
aF-0.021196635488914484
aF-0.39521891156750311
aF-0.43247321165883124
aF0.035025820594445589
aF-0.23407974863909187
aF-0.46720245370120084
aF-0.22876125340230147
aF-0.25563460776274483
aF-0.36319599315678763
aF-0.25149946152332348
aF0.24443605572198146
aF-0.046242860641710681
aF0.30544181005153548
aF-0.39024765573704068
aF-0.082707461127677351
aF-0.46052892420231295
aF-0.02167217137963684
aF0.24322504032080439
aF-0.18213622126141815
aF0.11490274967051273
aF0.35133311260787226
aF0.37763500619439072
aF-0.24450085167208668
aF0.24950220165504944
aF0.3061146263570802
aF0.22226023345141854
aF-0.27123135779638774
aF0.33431003920353386
aF0.48111504982694842
aF-0.46501861208560824
aF0.33957945706367987
aF-0.48101827255919882
aF0.49014891270343564
aF0.46356789099808204
aF-0.084245131828121878
aF0.41143407652545705
aF-0.25249991289506568
aF-0.18668880699095369
aF0.018160179961244638
aF-0.14725239464125406
aF0.40869467087122535
aF0.31249495847876507
aF-0.10276057024058816
aF-0.28386337780135196
aF-0.16009071319750567
aF-0.10598963426877239
aF-0.15108250874341855
aF-0.41798687426919878
aF0.26514343862472445
aF0.49016490756030362
aF-0.26262696524103957
aF0.31290788101217359
aF0.11333549168482859
aF0.43134533576910139
aF-0.43669728921538065
aF0.24034863529945938
aF0.30435436134657257
aF0.46198264951112666
aF-0.05686956763115647
aF-0.018503370596728796
aF-0.074392941810547342
aF0.25857377467040277
aF-0.49938931288124067
aF0.48089313604911654
aF0.34161511479096618
aF0.19482069114362555
aF-0.46376360629999736
aF0.44548296835089252
aF0.094663378133128973
aF-0.41944291910431397
aF-0.14337134796893192
aF0.32521912743321035
aF-0.4301214403545417
aF0.29026184253027387
aF0.30043261185266013
aF0.44201484491708676
aF0.056895977454066271
aF-0.15722834091114124
aF0.031952083629798955
aF0.48808283223604509
aF0.013891908054488034
aF0.29802106040523468
aF0.094520907021357625
aF-0.17928121264547681
aF0.2740799411785001
aF-0.20524825056755058
aF0.44212033618391788
aF0.306953139136113
aF-0.075445623526647521
aF-0.44500024891175527
aF-0.13722908368314113
aF-0.35460983006253244
aF-0.35067823147559862
aF-0.25916139553708928
aF-0.2130293918799081
aF-0.31274348879161995
aF-0.29087969431065996
aF-0.15917829003597495
aF0.084421184038000696
aF-0.0036892010215422433
aF0.18542295058639136
aF-0.24455171003788279
aF-0.15348467000854293
aF0.17813068110594377
aF0.020091538028500056
aF-0.39778725690018479
aF0.074645193674784616
aF-0.33744069437768498
aF-0.18691943368877129
aF-0.2738926521280185
aF0.34899509875327506
aF-0.4562060606451892
aF-0.45726470606504999
aF0.48721136680136135
aF-0.36468984022864925
aF-0.47016392393183781
aF-0.27730127683122585
aF0.41425296702797021
aF0.041007834153126588
aF-0.40939209591361603
aF0.28354491084524203
aF-0.41896186485906028
aF0.17486021223083448
aF-0.32314761442644524
aF0.1127403435643578
aF0.19449926927636974
aF0.28669225115310371
aF-0.4517939767559338
aF0.40324633363427065
aF-0.28280259326217327
aF0.40134247756213837
aF0.3754553834016453
aF0.006073995401780441
aF0.068976938262592324
aF-0.12789076775552921
aF0.26306636890053003
aF-0.27059520074014221
aF-0.074374951584388338
aF-0.2493610324618053
aF0.19209499404025143
aF0.23473914250824368
aF-0.11065592817636161
aF-0.18743954406273056
aF-0.063960145244778221
aF-0.20050336626838905
aF-0.17902541673692773
aF-0.39140919217603976
aF0.010732657051743755
aF0.38341378380051561
aF-0.22692047409234584
aF0.25659173668714352
aF-0.31115444636710332
aF-0.43976336423119744
aF-0.071415045039390224
aF0.21183273805353964
aF0.44082760964523449
aF0.03150040877122906
aF-0.32454719690745659
aF0.17646632795489581
aF-0.4722543986416704
aF-0.29250094594200249
aF-0.22784207239771259
aF0.072818376592211798
aF0.35709150341507356
aF0.13871591359019064
aF0.3747135080362306
aF-0.4031030759856733
aF0.37536450204381355
aF-0.46060429923562307
aF-0.49055613708054402
aF-0.21590670156338521
aF-0.19571564077770665
aF-0.054293569369677774
aF0.20873659920117738
aF-0.19837868143863535
aF-0.12850812407805234
aF-0.020128111976927432
aF0.095180632517802843
aF0.05851302890119614
aF-0.33723859874179107
aF-0.27161211941848162
aF0.36575027634275026
aF-0.31938364469539848
aF-0.024357742045837849
aF-0.40454571643580417
aF0.065989451730952275
aF0.49624446522301402
aF-0.040110420132825175
aF0.25077995478785453
aF-0.2793644855316455
aF-0.11579680707813178
aF0.36882093233656132
aF0.486475856648799
aF0.22824798643048372
aF0.49642195932796584
aF-0.03996120133537906
aF0.43074221700317417
aF0.31176204645965078
aF0.46562194816152402
aF0.30108449248882374
aF-0.31634602988798977
aF0.43210042454771047
aF0.30186846755561636
aF0.47282320235789066
aF0.20100168155723952
aF-0.33691416884803638
aF-0.43531574649595561
aF0.34526880352132627
aF0.47307959453760151
aF0.31147333724177173
aF0.22127069808223532
aF0.44641745425136004
aF-0.3089741489299993
aF-0.13776530273042054
aF0.23693522943332024
aF-0.33174335293873669
aF0.038731130528186553
aF-0.14878877443834015
aF-0.29577592994940172
aF0.18388354172056243
aF-0.18131587014417361
aF0.28928314783477493
aF0.22135782581915098
aF0.26110209998584955
aF0.09275753593417202
aF0.21298958547135238
aF0.3853840591748926
aF-0.23335485970057945
aF-0.18200683596161515
aF0.19030557384579649
aF0.30878566524914197
aF-0.066000282371872609
aF0.069974337158182576
aF0.0078100962687969178
aF0.35128677170197542
aF0.29426452976874529
aF-0.2442214878908604
aF-0.41160041416973703
aF-0.22914594530504118
aF0.29670729269457186
aF0.26437543424983578
aF-0.36155616313865602
aF0.43101212193145788
aF0.26025543330746947
aF-0.18790982018998204
aF0.067938518853148833
aF0.095793739601437666
aF0.15220359478248691
aF-0.31220938993444025
aF-0.150388787913594
aF-0.18898904968934149
aF0.49132056636084021
aF0.031756130205259137
aF-0.46009534656633821
aF-0.25144852785606253
aF0.4937362875850656
aF-0.14250444409372476
aF0.39102714077237699
aF-0.43878759245870469
aF-0.34089309148319058
aF-0.39843344696674909
aF0.27099542221325923
aF-0.33134611391363977
aF0.3521584384969535
aF-0.06474881396414589
aF-0.35491220174734195
aF0.37311425066879012
aF0.47921757535447906
aF-0.11124431877908858
aF0.11777410231455299
aF-0.46658439398010265
aF-0.39394194445489017
aF-0.41829240822090341
aF0.35639651079334977
aF-0.095112158826856752
aF0.013874799477792688
aF-0.001221828189638452
aF-0.31297061976424334
aF-0.23031088640935049
aF-0.21653948348679697
aF0.40771081984763125
aF0.40498054938269734
aF0.43795932058573339
aF-0.20502595426587289
aF0.20221010696705788
aF-0.43142544793879689
aF0.18562862291468762
aF0.43198623934079705
aF-0.090865807954473743
aF-0.26157880889176011
aF-0.27250959020762866
aF-0.26164808698690711
aF-0.35968922170704754
aF0.4027210491388914
aF0.10526913539008931
aF0.39593508990988846
aF-0.33014202712021268
aF-0.08412670372786446
aF-0.46086918366524354
aF-0.47278149092963895
aF-0.4844629084971358
aF-0.15335313057536848
aF-0.3685785001709837
aF-0.47189557850626607
aF0.39703527919508608
aF-0.078303805579607477
aF-0.47766053563313549
aF0.040944997421106688
aF0.10005365995052218
aF-0.0068419171012042979
aF0.41884176589400612
aF0.095348997890618681
aF-0.20601040850879715
aF-0.42305068992343131
aF0.24693585882210012
aF-0.3178998638682945
aF-0.35938950072740239
aF0.40891069608586605
aF0.37921487214371929
aF0.21788653680732939
aF0.42021066445609978
aF0.41230262557754238
aF-0.010179938964020918
aF0.28740386384285344
aF-0.0096532854488822206
aF0.021919945803495544
aF0.046738913495373735
aF0.31050908465381932
aF0.45270967757755676
aF-0.049438968789894733
aF0.42649583332507635
aF-0.40889214992862077
aF0.0082440198232917039
aF0.14411658960719609
aF0.45500209077322529
aF-0.090311708530530943
aF-0.069787464923228071
aF-0.48738061448912751
aF0.10799086393616453
aF-0.30606342098290484
aF0.044137517946692073
aF-0.056671840184172373
aF0.42633733939933971
aF0.35156872227903191
aF0.12970581353296151
aF0.19326994119376872
aF0.18719388272918702
aF-0.1526836217905545
aF-0.34343932834690394
aF-0.18040335892445136
aF-0.31375062593243486
aF0.19249161839851514
aF-0.1038575568881196
aF-0.30327375572228898
aF0.29148817812975081
aF-0.43426820902547969
aF-0.15017404191439476
aF-0.46350898377106464
aF-0.23996054944839729
aF0.15607555557583874
aF0.14162257213317841
aF0.30054399625399841
aF0.017646276828353291
aF0.18939125431405857
aF0.08393863844257321
aF0.053942962186164345
aF0.27045597090283191
aF-0.0072804132656464349
aF0.42702695838852356
aF-0.26343608453470369
aF-0.020607649154036345
aF0.30023177536544032
aF-0.2791069611558985
aF-0.13343114084397201
aF0.25957540214189545
aF-0.24424104791937862
aF-0.045852093977059361
aF-0.22375238198953085
asS'xData'
p46
Nsg17
S'signal'
p47
sS'class'
p48
S'SignalNoise'
p49
s.